target datalayout = "e-m:e-p270:32:32-p271:32:32-p272:64:64-i64:64-i128:128-f80:128-n8:16:32:64-S128"
target triple = "x86_64-pc-linux-gnu"

%struct.luaL_Reg = type { ptr, ptr }

@.str.84 = private unnamed_addr constant [6 x i8] c"types\00", align 1

; Function Attrs: mustprogress uwtable
define dso_local void @_ZN4Luau20registerTypesLibraryEP9lua_State(ptr noundef %0) #3 {
  %2 = alloca ptr, align 8
  %3 = alloca [9 x %struct.luaL_Reg], align 16
  %4 = alloca [9 x %struct.luaL_Reg], align 16
  %5 = alloca ptr, align 8
  store ptr %0, ptr %2, align 8, !tbaa !25
  call void @llvm.lifetime.start.p0(i64 144, ptr %3) #17
  call void @llvm.memcpy.p0.p0.i64(ptr align 16 %3, ptr align 16 @__const._ZN4Luau20registerTypesLibraryEP9lua_State.fields, i64 144, i1 false)
  call void @llvm.lifetime.start.p0(i64 144, ptr %4) #17
  call void @llvm.memcpy.p0.p0.i64(ptr align 16 %4, ptr align 16 @__const._ZN4Luau20registerTypesLibraryEP9lua_State.methods, i64 144, i1 false)
  %6 = load ptr, ptr %2, align 8, !tbaa !25
  %7 = getelementptr inbounds [9 x %struct.luaL_Reg], ptr %4, i64 0, i64 0
  call void @_Z13luaL_registerP9lua_StatePKcPK8luaL_Reg(ptr noundef %6, ptr noundef @.str.84, ptr noundef %7)
  call void @llvm.lifetime.start.p0(i64 8, ptr %5) #17
  %8 = getelementptr inbounds [9 x %struct.luaL_Reg], ptr %3, i64 0, i64 0
  store ptr %8, ptr %5, align 8, !tbaa !65
  br label %9

9:                                                ; preds = %25, %1
  %10 = load ptr, ptr %5, align 8, !tbaa !65
  %11 = getelementptr inbounds nuw %struct.luaL_Reg, ptr %10, i32 0, i32 0
  %12 = load ptr, ptr %11, align 8, !tbaa !67
  %13 = icmp ne ptr %12, null
  br i1 %13, label %15, label %14

14:                                               ; preds = %9
  call void @llvm.lifetime.end.p0(i64 8, ptr %5) #17
  br label %28

15:                                               ; preds = %9
  %16 = load ptr, ptr %5, align 8, !tbaa !65
  %17 = getelementptr inbounds nuw %struct.luaL_Reg, ptr %16, i32 0, i32 1
  %18 = load ptr, ptr %17, align 8, !tbaa !69
  %19 = load ptr, ptr %2, align 8, !tbaa !25
  %20 = call noundef i32 %18(ptr noundef %19)
  %21 = load ptr, ptr %2, align 8, !tbaa !25
  %22 = load ptr, ptr %5, align 8, !tbaa !65
  %23 = getelementptr inbounds nuw %struct.luaL_Reg, ptr %22, i32 0, i32 0
  %24 = load ptr, ptr %23, align 8, !tbaa !67
  call void @_Z12lua_setfieldP9lua_StateiPKc(ptr noundef %21, i32 noundef -2, ptr noundef %24)
  br label %25

25:                                               ; preds = %15
  %26 = load ptr, ptr %5, align 8, !tbaa !65
  %27 = getelementptr inbounds nuw %struct.luaL_Reg, ptr %26, i32 1
  store ptr %27, ptr %5, align 8, !tbaa !65
  br label %9, !llvm.loop !70

28:                                               ; preds = %14
  %29 = load ptr, ptr %2, align 8, !tbaa !25
  call void @_Z10lua_settopP9lua_Statei(ptr noundef %29, i32 noundef -2)
  call void @llvm.lifetime.end.p0(i64 144, ptr %4) #17
  call void @llvm.lifetime.end.p0(i64 144, ptr %3) #17
  ret void
}