; Function Attrs: mustprogress uwtable
define dso_local void @_ZN4Luau20registerTypesLibraryEP9lua_State(ptr noundef %0) local_unnamed_addr #2 {
  %2 = alloca [9 x %struct.luaL_Reg], align 16
  call void @llvm.lifetime.start.p0(i64 144, ptr nonnull %2) #27
  call void @llvm.memcpy.p0.p0.i64(ptr noundef nonnull align 16 dereferenceable(144) %2, ptr noundef nonnull align 16 dereferenceable(144) @__const._ZN4Luau20registerTypesLibraryEP9lua_State.methods, i64 144, i1 false)
  call void @_Z13luaL_registerP9lua_StatePKcPK8luaL_Reg(ptr noundef %0, ptr noundef nonnull @.str.84, ptr noundef nonnull %2)
  br label %4

3:                                                ; preds = %4
  call void @_Z10lua_settopP9lua_Statei(ptr noundef %0, i32 noundef -2)
  call void @llvm.lifetime.end.p0(i64 144, ptr nonnull %2) #27
  ret void

4:                                                ; preds = %1, %4
  %5 = phi ptr [ @.str.68, %1 ], [ %10, %4 ]
  %.08 = phi ptr [ @__const._ZN4Luau20registerTypesLibraryEP9lua_State.fields, %1 ], [ %9, %4 ]
  %6 = getelementptr inbounds nuw i8, ptr %.08, i64 8
  %7 = load ptr, ptr %6, align 8, !tbaa !46
  %8 = call noundef i32 %7(ptr noundef %0)
  call void @_Z12lua_setfieldP9lua_StateiPKc(ptr noundef %0, i32 noundef -2, ptr noundef nonnull %5)
  %9 = getelementptr inbounds nuw i8, ptr %.08, i64 16
  %10 = load ptr, ptr %9, align 8, !tbaa !48
  %.not = icmp eq ptr %10, null
  br i1 %.not, label %3, label %4, !llvm.loop !49
}